target datalayout = "e-m:e-p270:32:32-p271:32:32-p272:64:64-i64:64-i128:128-f80:128-n8:16:32:64-S128"
target triple = "x86_64-pc-linux-gnu"

%union.Cv32suf = type { i32 }

@.str.1 = private unnamed_addr constant [5 x i8] c"%d.0\00", align 1
@.str.2 = private unnamed_addr constant [4 x i8] c"%d.\00", align 1
@.str.4 = private unnamed_addr constant [5 x i8] c".Nan\00", align 1
@.str.5 = private unnamed_addr constant [6 x i8] c"-.Inf\00", align 1
@.str.6 = private unnamed_addr constant [5 x i8] c".Inf\00", align 1
@.str.7 = private unnamed_addr constant [5 x i8] c"%.5g\00", align 1
@.str.8 = private unnamed_addr constant [5 x i8] c"%.9g\00", align 1

; Function Attrs: alwaysinline mustprogress nounwind uwtable
define internal noundef i32 @_ZL14_mm_cvtss_si32Dv4_f(<4 x float> noundef %0) #19 {
  %2 = alloca <4 x float>, align 16
  store <4 x float> %0, ptr %2, align 16, !tbaa !10
  %3 = load <4 x float>, ptr %2, align 16, !tbaa !10
  %4 = call i32 @llvm.x86.sse.cvtss2si(<4 x float> %3)
  ret i32 %4
}

; Function Attrs: alwaysinline mustprogress nounwind uwtable
define internal noundef <4 x float> @_ZL10_mm_set_ssf(float noundef %0) #19 {
  %2 = alloca float, align 4
  %3 = alloca <4 x float>, align 16
  store float %0, ptr %2, align 4, !tbaa !26
  %4 = load float, ptr %2, align 4, !tbaa !26
  %5 = insertelement <4 x float> poison, float %4, i32 0
  %6 = insertelement <4 x float> %5, float 0.000000e+00, i32 1
  %7 = insertelement <4 x float> %6, float 0.000000e+00, i32 2
  %8 = insertelement <4 x float> %7, float 0.000000e+00, i32 3
  store <4 x float> %8, ptr %3, align 16, !tbaa !10
  %9 = load <4 x float>, ptr %3, align 16, !tbaa !10
  ret <4 x float> %9
}

; Function Attrs: inlinehint mustprogress nounwind uwtable
define linkonce_odr hidden noundef zeroext i1 @_Z10cv_isdigitc(i8 noundef signext %0) #7 comdat {
  %2 = alloca i8, align 1
  store i8 %0, ptr %2, align 1, !tbaa !10
  %3 = load i8, ptr %2, align 1, !tbaa !10
  %4 = sext i8 %3 to i32
  %5 = icmp sle i32 48, %4
  br i1 %5, label %6, label %10

6:                                                ; preds = %1
  %7 = load i8, ptr %2, align 1, !tbaa !10
  %8 = sext i8 %7 to i32
  %9 = icmp sle i32 %8, 57
  br label %10

10:                                               ; preds = %6, %1
  %11 = phi i1 [ false, %1 ], [ %9, %6 ]
  ret i1 %11
}

; Function Attrs: inlinehint mustprogress uwtable
define internal noundef i32 @_ZL7cvRoundf(float noundef %0) #10 {
  %2 = alloca float, align 4
  %3 = alloca <4 x float>, align 16
  store float %0, ptr %2, align 4, !tbaa !26
  call void @llvm.lifetime.start.p0(i64 16, ptr %3) #3
  %4 = load float, ptr %2, align 4, !tbaa !26
  %5 = call noundef <4 x float> @_ZL10_mm_set_ssf(float noundef %4)
  store <4 x float> %5, ptr %3, align 16, !tbaa !10
  %6 = load <4 x float>, ptr %3, align 16, !tbaa !10
  %7 = call noundef i32 @_ZL14_mm_cvtss_si32Dv4_f(<4 x float> noundef %6)
  call void @llvm.lifetime.end.p0(i64 16, ptr %3) #3
  ret i32 %7
}

; Function Attrs: mustprogress uwtable
define hidden noundef ptr @_ZN2cv2fs13floatToStringEPcmfbb(ptr noundef %0, i64 noundef %1, float noundef %2, i1 noundef zeroext %3, i1 noundef zeroext %4) #4 {
  %6 = alloca ptr, align 8
  %7 = alloca i64, align 8
  %8 = alloca float, align 4
  %9 = alloca i8, align 1
  %10 = alloca i8, align 1
  %11 = alloca %union.Cv32suf, align 4
  %12 = alloca i32, align 4
  %13 = alloca i32, align 4
  %14 = alloca ptr, align 8
  store ptr %0, ptr %6, align 8, !tbaa !3
  store i64 %1, ptr %7, align 8, !tbaa !8
  store float %2, ptr %8, align 4, !tbaa !26
  %15 = zext i1 %3 to i8
  store i8 %15, ptr %9, align 1, !tbaa !18
  %16 = zext i1 %4 to i8
  store i8 %16, ptr %10, align 1, !tbaa !18
  call void @llvm.lifetime.start.p0(i64 4, ptr %11) #3
  call void @llvm.lifetime.start.p0(i64 4, ptr %12) #3
  %17 = load float, ptr %8, align 4, !tbaa !26
  store float %17, ptr %11, align 4, !tbaa !10
  %18 = load i32, ptr %11, align 4, !tbaa !10
  store i32 %18, ptr %12, align 4, !tbaa !11
  %19 = load i32, ptr %12, align 4, !tbaa !11
  %20 = and i32 %19, 2139095040
  %21 = icmp ne i32 %20, 2139095040
  br i1 %21, label %22, label %90

22:                                               ; preds = %5
  call void @llvm.lifetime.start.p0(i64 4, ptr %13) #3
  %23 = load float, ptr %8, align 4, !tbaa !26
  %24 = call noundef i32 @_ZL7cvRoundf(float noundef %23)
  store i32 %24, ptr %13, align 4, !tbaa !11
  %25 = load i32, ptr %13, align 4, !tbaa !11
  %26 = sitofp i32 %25 to float
  %27 = load float, ptr %8, align 4, !tbaa !26
  %28 = fcmp oeq float %26, %27
  br i1 %28, label %29, label %43

29:                                               ; preds = %22
  %30 = load i8, ptr %10, align 1, !tbaa !18, !range !20, !noundef !21
  %31 = trunc i8 %30 to i1
  br i1 %31, label %32, label %37

32:                                               ; preds = %29
  %33 = load ptr, ptr %6, align 8, !tbaa !3
  %34 = load i64, ptr %7, align 8, !tbaa !8
  %35 = load i32, ptr %13, align 4, !tbaa !11
  %36 = call i32 (ptr, i64, ptr, ...) @snprintf(ptr noundef %33, i64 noundef %34, ptr noundef @.str.1, i32 noundef %35) #3
  br label %42

37:                                               ; preds = %29
  %38 = load ptr, ptr %6, align 8, !tbaa !3
  %39 = load i64, ptr %7, align 8, !tbaa !8
  %40 = load i32, ptr %13, align 4, !tbaa !11
  %41 = call i32 (ptr, i64, ptr, ...) @snprintf(ptr noundef %38, i64 noundef %39, ptr noundef @.str.2, i32 noundef %40) #3
  br label %42

42:                                               ; preds = %37, %32
  br label %89

43:                                               ; preds = %22
  %44 = load i8, ptr %9, align 1, !tbaa !18, !range !20, !noundef !21
  %45 = trunc i8 %44 to i1
  br i1 %45, label %46, label %52

46:                                               ; preds = %43
  %47 = load ptr, ptr %6, align 8, !tbaa !3
  %48 = load i64, ptr %7, align 8, !tbaa !8
  %49 = load float, ptr %8, align 4, !tbaa !26
  %50 = fpext float %49 to double
  %51 = call i32 (ptr, i64, ptr, ...) @snprintf(ptr noundef %47, i64 noundef %48, ptr noundef @.str.7, double noundef %50) #3
  br label %58

52:                                               ; preds = %43
  %53 = load ptr, ptr %6, align 8, !tbaa !3
  %54 = load i64, ptr %7, align 8, !tbaa !8
  %55 = load float, ptr %8, align 4, !tbaa !26
  %56 = fpext float %55 to double
  %57 = call i32 (ptr, i64, ptr, ...) @snprintf(ptr noundef %53, i64 noundef %54, ptr noundef @.str.8, double noundef %56) #3
  br label %58

58:                                               ; preds = %52, %46
  call void @llvm.lifetime.start.p0(i64 8, ptr %14) #3
  %59 = load ptr, ptr %6, align 8, !tbaa !3
  store ptr %59, ptr %14, align 8, !tbaa !3
  %60 = load ptr, ptr %14, align 8, !tbaa !3
  %61 = load i8, ptr %60, align 1, !tbaa !10
  %62 = sext i8 %61 to i32
  %63 = icmp eq i32 %62, 43
  br i1 %63, label %69, label %64

64:                                               ; preds = %58
  %65 = load ptr, ptr %14, align 8, !tbaa !3
  %66 = load i8, ptr %65, align 1, !tbaa !10
  %67 = sext i8 %66 to i32
  %68 = icmp eq i32 %67, 45
  br i1 %68, label %69, label %72

69:                                               ; preds = %64, %58
  %70 = load ptr, ptr %14, align 8, !tbaa !3
  %71 = getelementptr inbounds nuw i8, ptr %70, i32 1
  store ptr %71, ptr %14, align 8, !tbaa !3
  br label %72

72:                                               ; preds = %69, %64
  br label %73

73:                                               ; preds = %78, %72
  %74 = load ptr, ptr %14, align 8, !tbaa !3
  %75 = load i8, ptr %74, align 1, !tbaa !10
  %76 = call noundef zeroext i1 @_Z10cv_isdigitc(i8 noundef signext %75)
  br i1 %76, label %77, label %81

77:                                               ; preds = %73
  br label %78

78:                                               ; preds = %77
  %79 = load ptr, ptr %14, align 8, !tbaa !3
  %80 = getelementptr inbounds nuw i8, ptr %79, i32 1
  store ptr %80, ptr %14, align 8, !tbaa !3
  br label %73, !llvm.loop !28

81:                                               ; preds = %73
  %82 = load ptr, ptr %14, align 8, !tbaa !3
  %83 = load i8, ptr %82, align 1, !tbaa !10
  %84 = sext i8 %83 to i32
  %85 = icmp eq i32 %84, 44
  br i1 %85, label %86, label %88

86:                                               ; preds = %81
  %87 = load ptr, ptr %14, align 8, !tbaa !3
  store i8 46, ptr %87, align 1, !tbaa !10
  br label %88

88:                                               ; preds = %86, %81
  call void @llvm.lifetime.end.p0(i64 8, ptr %14) #3
  br label %89

89:                                               ; preds = %88, %42
  call void @llvm.lifetime.end.p0(i64 4, ptr %13) #3
  br label %104

90:                                               ; preds = %5
  %91 = load i32, ptr %12, align 4, !tbaa !11
  %92 = and i32 %91, 2147483647
  %93 = icmp ne i32 %92, 2139095040
  br i1 %93, label %94, label %97

94:                                               ; preds = %90
  %95 = load ptr, ptr %6, align 8, !tbaa !3
  %96 = call ptr @strcpy(ptr noundef %95, ptr noundef @.str.4) #3
  br label %103

97:                                               ; preds = %90
  %98 = load ptr, ptr %6, align 8, !tbaa !3
  %99 = load i32, ptr %12, align 4, !tbaa !11
  %100 = icmp slt i32 %99, 0
  %101 = select i1 %100, ptr @.str.5, ptr @.str.6
  %102 = call ptr @strcpy(ptr noundef %98, ptr noundef %101) #3
  br label %103

103:                                              ; preds = %97, %94
  br label %104

104:                                              ; preds = %103, %89
  %105 = load ptr, ptr %6, align 8, !tbaa !3
  call void @llvm.lifetime.end.p0(i64 4, ptr %12) #3
  call void @llvm.lifetime.end.p0(i64 4, ptr %11) #3
  ret ptr %105
}