; Function Attrs: mustprogress nofree nounwind uwtable
define hidden noundef ptr @_ZN2cv2fs13floatToStringEPcmfbb(ptr noundef returned %0, i64 noundef %1, float noundef %2, i1 noundef zeroext %3, i1 noundef zeroext %4) local_unnamed_addr #9 {
  %6 = bitcast float %2 to i32
  %7 = and i32 %6, 2139095040
  %.not = icmp eq i32 %7, 2139095040
  br i1 %.not, label %32, label %8

8:                                                ; preds = %5
  %9 = insertelement <4 x float> poison, float %2, i64 0
  %10 = tail call noundef i32 @llvm.x86.sse.cvtss2si(<4 x float> %9)
  %11 = sitofp i32 %10 to float
  %12 = fcmp oeq float %2, %11
  br i1 %12, label %13, label %18

13:                                               ; preds = %8
  br i1 %4, label %14, label %16

14:                                               ; preds = %13
  %15 = tail call i32 (ptr, i64, ptr, ...) @snprintf(ptr noundef %0, i64 noundef %1, ptr noundef nonnull @.str.1, i32 noundef %10) #41
  br label %39

16:                                               ; preds = %13
  %17 = tail call i32 (ptr, i64, ptr, ...) @snprintf(ptr noundef %0, i64 noundef %1, ptr noundef nonnull @.str.2, i32 noundef %10) #41
  br label %39

18:                                               ; preds = %8
  %19 = fpext float %2 to double
  %.str.7..str.8 = select i1 %3, ptr @.str.7, ptr @.str.8
  %20 = tail call i32 (ptr, i64, ptr, ...) @snprintf(ptr noundef %0, i64 noundef %1, ptr noundef nonnull %.str.7..str.8, double noundef %19) #41
  %21 = load i8, ptr %0, align 1, !tbaa !5
  switch i8 %21, label %.preheader [
    i8 43, label %22
    i8 45, label %22
  ]

22:                                               ; preds = %18, %18
  %23 = getelementptr inbounds nuw i8, ptr %0, i64 1
  br label %.preheader

.preheader:                                       ; preds = %18, %22
  %.1.ph = phi ptr [ %0, %18 ], [ %23, %22 ]
  br label %24

24:                                               ; preds = %.preheader, %24
  %.1 = phi ptr [ %28, %24 ], [ %.1.ph, %.preheader ]
  %25 = load i8, ptr %.1, align 1, !tbaa !5
  %26 = add i8 %25, -48
  %27 = icmp ult i8 %26, 10
  %28 = getelementptr inbounds nuw i8, ptr %.1, i64 1
  br i1 %27, label %24, label %29, !llvm.loop !11

29:                                               ; preds = %24
  %30 = icmp eq i8 %25, 44
  br i1 %30, label %31, label %39

31:                                               ; preds = %29
  store i8 46, ptr %.1, align 1, !tbaa !5
  br label %39

32:                                               ; preds = %5
  %33 = tail call float @llvm.fabs.f32(float %2)
  %.not33 = fcmp oeq float %33, 0x7FF0000000000000
  br i1 %.not33, label %35, label %34

34:                                               ; preds = %32
  tail call void @llvm.memcpy.p0.p0.i64(ptr noundef nonnull align 1 dereferenceable(5) %0, ptr noundef nonnull align 1 dereferenceable(5) @.str.4, i64 5, i1 false) #41
  br label %39

35:                                               ; preds = %32
  %36 = icmp slt i32 %6, 0
  %37 = select i1 %36, ptr @.str.5, ptr @.str.6
  %38 = tail call ptr @strcpy(ptr noundef nonnull dereferenceable(1) %0, ptr noundef nonnull dereferenceable(1) %37) #41
  br label %39

39:                                               ; preds = %16, %14, %31, %29, %34, %35
  ret ptr %0
}